target datalayout = "e-m:e-p270:32:32-p271:32:32-p272:64:64-i64:64-i128:128-f80:128-n8:16:32:64-S128"
target triple = "x86_64-pc-linux-gnu"

%struct.expert_field = type { i32, i32 }

@hf_PCEPF_ERROR_TYPE = internal global i32 0, align 4
@hf_PCEPF_ERROR_VALUE = internal global i32 0, align 4
@hf_pcep_error_obj_reserved = internal global i32 0, align 4
@hf_pcep_error_obj_flags = internal global i32 0, align 4
@ett_pcep_obj_error = internal global i32 0, align 4
@ei_pcep_subobject_bad_length = internal global %struct.expert_field zeroinitializer, align 4
@.str.872 = private unnamed_addr constant [11 x i8] c"Unassigned\00", align 1
@.str.1141 = private unnamed_addr constant [8 x i8] c"Unknown\00", align 1
@.str.1183 = private unnamed_addr constant [44 x i8] c"Bad ERROR object length %u, should be >= %u\00", align 1
@.str.1184 = private unnamed_addr constant [30 x i8] c" (%u Non defined Error-Value)\00", align 1
@.str.1185 = private unnamed_addr constant [8 x i8] c"%s (%u)\00", align 1
@pcep_error_value_3_vals = internal constant [3 x { i32, [4 x i8], ptr }] [{ i32, [4 x i8], ptr } { i32 1, [4 x i8] zeroinitializer, ptr @.str.1195 }, { i32, [4 x i8], ptr } { i32 2, [4 x i8] zeroinitializer, ptr @.str.1196 }, { i32, [4 x i8], ptr } zeroinitializer], align 16
@pcep_error_value_13_vals = internal constant [2 x { i32, [4 x i8], ptr }] [{ i32, [4 x i8], ptr } { i32 1, [4 x i8] zeroinitializer, ptr @.str.1274 }, { i32, [4 x i8], ptr } zeroinitializer], align 16
@pcep_error_value_15_vals = internal constant [3 x { i32, [4 x i8], ptr }] [{ i32, [4 x i8], ptr } { i32 1, [4 x i8] zeroinitializer, ptr @.str.1276 }, { i32, [4 x i8], ptr } { i32 2, [4 x i8] zeroinitializer, ptr @.str.1277 }, { i32, [4 x i8], ptr } zeroinitializer], align 16
@pcep_error_value_16_vals = internal constant [3 x { i32, [4 x i8], ptr }] [{ i32, [4 x i8], ptr } { i32 1, [4 x i8] zeroinitializer, ptr @.str.1279 }, { i32, [4 x i8], ptr } { i32 2, [4 x i8] zeroinitializer, ptr @.str.1280 }, { i32, [4 x i8], ptr } zeroinitializer], align 16
@pcep_error_value_21_vals = internal constant [3 x { i32, [4 x i8], ptr }] [{ i32, [4 x i8], ptr } { i32 1, [4 x i8] zeroinitializer, ptr @.str.1321 }, { i32, [4 x i8], ptr } { i32 2, [4 x i8] zeroinitializer, ptr @.str.1322 }, { i32, [4 x i8], ptr } zeroinitializer], align 16
@pcep_error_value_23_vals = internal constant [3 x { i32, [4 x i8], ptr }] [{ i32, [4 x i8], ptr } { i32 1, [4 x i8] zeroinitializer, ptr @.str.1324 }, { i32, [4 x i8], ptr } { i32 2, [4 x i8] zeroinitializer, ptr @.str.1325 }, { i32, [4 x i8], ptr } zeroinitializer], align 16
@pcep_error_value_28_vals = internal constant [3 x { i32, [4 x i8], ptr }] [{ i32, [4 x i8], ptr } { i32 1, [4 x i8] zeroinitializer, ptr @.str.1359 }, { i32, [4 x i8], ptr } { i32 2, [4 x i8] zeroinitializer, ptr @.str.1360 }, { i32, [4 x i8], ptr } zeroinitializer], align 16

; Function Attrs: null_pointer_is_valid sspstrong uwtable
define internal void @dissect_pcep_tlvs(ptr noundef %0, ptr noundef %1, i32 noundef %2, i32 noundef %3, i32 noundef %4) #0 {
  %6 = alloca ptr, align 8
  %7 = alloca ptr, align 8
  %8 = alloca i32, align 4
  %9 = alloca i32, align 4
  %10 = alloca i32, align 4
  store ptr %0, ptr %6, align 8
  store ptr %1, ptr %7, align 8
  store i32 %2, ptr %8, align 4
  store i32 %3, ptr %9, align 4
  store i32 %4, ptr %10, align 4
  %11 = load ptr, ptr %6, align 8
  %12 = load ptr, ptr %7, align 8
  %13 = load i32, ptr %8, align 4
  %14 = load i32, ptr %9, align 4
  %15 = load i32, ptr %10, align 4
  call void @dissect_pcep_tlvs_with_scope(ptr noundef %11, ptr noundef %12, i32 noundef %13, i32 noundef %14, i32 noundef %15, i16 noundef zeroext 0)
  ret void
}

; Function Attrs: null_pointer_is_valid sspstrong uwtable
define internal void @dissect_pcep_error_obj(ptr noundef %0, ptr noundef %1, ptr noundef %2, i32 noundef %3, i32 noundef %4, i32 noundef %5, i32 noundef %6) #0 {
  %8 = alloca ptr, align 8
  %9 = alloca ptr, align 8
  %10 = alloca ptr, align 8
  %11 = alloca i32, align 4
  %12 = alloca i32, align 4
  %13 = alloca i32, align 4
  %14 = alloca i32, align 4
  %15 = alloca i8, align 1
  %16 = alloca i8, align 1
  %17 = alloca ptr, align 8
  %18 = alloca ptr, align 8
  %19 = alloca i32, align 4
  store ptr %0, ptr %8, align 8
  store ptr %1, ptr %9, align 8
  store ptr %2, ptr %10, align 8
  store i32 %3, ptr %11, align 4
  store i32 %4, ptr %12, align 4
  store i32 %5, ptr %13, align 4
  store i32 %6, ptr %14, align 4
  call void @llvm.lifetime.start.p0(i64 1, ptr %15) #4
  call void @llvm.lifetime.start.p0(i64 1, ptr %16) #4
  call void @llvm.lifetime.start.p0(i64 8, ptr %17) #4
  call void @llvm.lifetime.start.p0(i64 8, ptr %18) #4
  store ptr @.str.872, ptr %18, align 8
  %20 = load i32, ptr %12, align 4
  %21 = icmp slt i32 %20, 8
  br i1 %21, label %22, label %30

22:                                               ; preds = %7
  %23 = load ptr, ptr %8, align 8
  %24 = load ptr, ptr %9, align 8
  %25 = load ptr, ptr %10, align 8
  %26 = load i32, ptr %11, align 4
  %27 = load i32, ptr %12, align 4
  %28 = load i32, ptr %12, align 4
  %29 = call ptr (ptr, ptr, ptr, ptr, i32, i32, ptr, ...) @proto_tree_add_expert_format(ptr noundef %23, ptr noundef %24, ptr noundef @ei_pcep_subobject_bad_length, ptr noundef %25, i32 noundef %26, i32 noundef %27, ptr noundef @.str.1183, i32 noundef %28, i32 noundef 8)
  store i32 1, ptr %19, align 4
  br label %179

30:                                               ; preds = %7
  %31 = load ptr, ptr %8, align 8
  %32 = load i32, ptr @hf_pcep_error_obj_reserved, align 4
  %33 = load ptr, ptr %10, align 8
  %34 = load i32, ptr %11, align 4
  %35 = call ptr @proto_tree_add_item(ptr noundef %31, i32 noundef %32, ptr noundef %33, i32 noundef %34, i32 noundef 1, i32 noundef 0)
  %36 = load ptr, ptr %8, align 8
  %37 = load i32, ptr @hf_pcep_error_obj_flags, align 4
  %38 = load ptr, ptr %10, align 8
  %39 = load i32, ptr %11, align 4
  %40 = add i32 %39, 1
  %41 = call ptr @proto_tree_add_item(ptr noundef %36, i32 noundef %37, ptr noundef %38, i32 noundef %40, i32 noundef 1, i32 noundef 0)
  %42 = load ptr, ptr %10, align 8
  %43 = load i32, ptr %11, align 4
  %44 = add i32 %43, 2
  %45 = call zeroext i8 @tvb_get_uint8(ptr noundef %42, i32 noundef %44)
  store i8 %45, ptr %15, align 1
  %46 = load ptr, ptr %10, align 8
  %47 = load i32, ptr %11, align 4
  %48 = add i32 %47, 3
  %49 = call zeroext i8 @tvb_get_uint8(ptr noundef %46, i32 noundef %48)
  store i8 %49, ptr %16, align 1
  %50 = load ptr, ptr %8, align 8
  %51 = load i32, ptr @hf_PCEPF_ERROR_TYPE, align 4
  %52 = load ptr, ptr %10, align 8
  %53 = load i32, ptr %11, align 4
  %54 = add i32 %53, 2
  %55 = call ptr @proto_tree_add_item(ptr noundef %50, i32 noundef %51, ptr noundef %52, i32 noundef %54, i32 noundef 1, i32 noundef 0)
  store ptr %55, ptr %17, align 8
  %56 = load i8, ptr %15, align 1
  %57 = zext i8 %56 to i32
  switch i32 %57, label %154 [
    i32 1, label %58
    i32 2, label %158
    i32 3, label %62
    i32 4, label %66
    i32 5, label %70
    i32 6, label %74
    i32 7, label %158
    i32 8, label %158
    i32 9, label %158
    i32 10, label %78
    i32 11, label %158
    i32 12, label %82
    i32 13, label %86
    i32 15, label %90
    i32 16, label %94
    i32 17, label %98
    i32 18, label %102
    i32 19, label %106
    i32 20, label %110
    i32 21, label %114
    i32 23, label %118
    i32 24, label %122
    i32 25, label %126
    i32 26, label %130
    i32 27, label %134
    i32 28, label %138
    i32 29, label %142
    i32 30, label %146
    i32 31, label %150
  ]

58:                                               ; preds = %30
  %59 = load i8, ptr %16, align 1
  %60 = zext i8 %59 to i32
  %61 = call ptr @val_to_str_const(i32 noundef %60, ptr noundef @pcep_error_value_1_vals, ptr noundef @.str.1141)
  store ptr %61, ptr %18, align 8
  br label %158

62:                                               ; preds = %30
  %63 = load i8, ptr %16, align 1
  %64 = zext i8 %63 to i32
  %65 = call ptr @val_to_str_const(i32 noundef %64, ptr noundef @pcep_error_value_3_vals, ptr noundef @.str.1141)
  store ptr %65, ptr %18, align 8
  br label %158

66:                                               ; preds = %30
  %67 = load i8, ptr %16, align 1
  %68 = zext i8 %67 to i32
  %69 = call ptr @val_to_str_const(i32 noundef %68, ptr noundef @pcep_error_value_4_vals, ptr noundef @.str.1141)
  store ptr %69, ptr %18, align 8
  br label %158

70:                                               ; preds = %30
  %71 = load i8, ptr %16, align 1
  %72 = zext i8 %71 to i32
  %73 = call ptr @val_to_str_const(i32 noundef %72, ptr noundef @pcep_error_value_5_vals, ptr noundef @.str.1141)
  store ptr %73, ptr %18, align 8
  br label %158

74:                                               ; preds = %30
  %75 = load i8, ptr %16, align 1
  %76 = zext i8 %75 to i32
  %77 = call ptr @val_to_str_const(i32 noundef %76, ptr noundef @pcep_error_value_6_vals, ptr noundef @.str.1141)
  store ptr %77, ptr %18, align 8
  br label %158

78:                                               ; preds = %30
  %79 = load i8, ptr %16, align 1
  %80 = zext i8 %79 to i32
  %81 = call ptr @val_to_str_const(i32 noundef %80, ptr noundef @pcep_error_value_10_vals, ptr noundef @.str.1141)
  store ptr %81, ptr %18, align 8
  br label %158

82:                                               ; preds = %30
  %83 = load i8, ptr %16, align 1
  %84 = zext i8 %83 to i32
  %85 = call ptr @val_to_str_const(i32 noundef %84, ptr noundef @pcep_error_value_12_vals, ptr noundef @.str.1141)
  store ptr %85, ptr %18, align 8
  br label %158

86:                                               ; preds = %30
  %87 = load i8, ptr %16, align 1
  %88 = zext i8 %87 to i32
  %89 = call ptr @val_to_str_const(i32 noundef %88, ptr noundef @pcep_error_value_13_vals, ptr noundef @.str.1141)
  store ptr %89, ptr %18, align 8
  br label %158

90:                                               ; preds = %30
  %91 = load i8, ptr %16, align 1
  %92 = zext i8 %91 to i32
  %93 = call ptr @val_to_str_const(i32 noundef %92, ptr noundef @pcep_error_value_15_vals, ptr noundef @.str.1141)
  store ptr %93, ptr %18, align 8
  br label %158

94:                                               ; preds = %30
  %95 = load i8, ptr %16, align 1
  %96 = zext i8 %95 to i32
  %97 = call ptr @val_to_str_const(i32 noundef %96, ptr noundef @pcep_error_value_16_vals, ptr noundef @.str.1141)
  store ptr %97, ptr %18, align 8
  br label %158

98:                                               ; preds = %30
  %99 = load i8, ptr %16, align 1
  %100 = zext i8 %99 to i32
  %101 = call ptr @val_to_str_const(i32 noundef %100, ptr noundef @pcep_error_value_17_vals, ptr noundef @.str.1141)
  store ptr %101, ptr %18, align 8
  br label %158

102:                                              ; preds = %30
  %103 = load i8, ptr %16, align 1
  %104 = zext i8 %103 to i32
  %105 = call ptr @val_to_str_const(i32 noundef %104, ptr noundef @pcep_error_value_18_vals, ptr noundef @.str.1141)
  store ptr %105, ptr %18, align 8
  br label %158

106:                                              ; preds = %30
  %107 = load i8, ptr %16, align 1
  %108 = zext i8 %107 to i32
  %109 = call ptr @val_to_str_const(i32 noundef %108, ptr noundef @pcep_error_value_19_vals, ptr noundef @.str.1141)
  store ptr %109, ptr %18, align 8
  br label %158

110:                                              ; preds = %30
  %111 = load i8, ptr %16, align 1
  %112 = zext i8 %111 to i32
  %113 = call ptr @val_to_str_const(i32 noundef %112, ptr noundef @pcep_error_value_20_vals, ptr noundef @.str.1141)
  store ptr %113, ptr %18, align 8
  br label %158

114:                                              ; preds = %30
  %115 = load i8, ptr %16, align 1
  %116 = zext i8 %115 to i32
  %117 = call ptr @val_to_str_const(i32 noundef %116, ptr noundef @pcep_error_value_21_vals, ptr noundef @.str.1141)
  store ptr %117, ptr %18, align 8
  br label %158

118:                                              ; preds = %30
  %119 = load i8, ptr %16, align 1
  %120 = zext i8 %119 to i32
  %121 = call ptr @val_to_str_const(i32 noundef %120, ptr noundef @pcep_error_value_23_vals, ptr noundef @.str.1141)
  store ptr %121, ptr %18, align 8
  br label %158

122:                                              ; preds = %30
  %123 = load i8, ptr %16, align 1
  %124 = zext i8 %123 to i32
  %125 = call ptr @val_to_str_const(i32 noundef %124, ptr noundef @pcep_error_value_24_vals, ptr noundef @.str.1141)
  store ptr %125, ptr %18, align 8
  br label %158

126:                                              ; preds = %30
  %127 = load i8, ptr %16, align 1
  %128 = zext i8 %127 to i32
  %129 = call ptr @val_to_str_const(i32 noundef %128, ptr noundef @pcep_error_value_25_vals, ptr noundef @.str.1141)
  store ptr %129, ptr %18, align 8
  br label %158

130:                                              ; preds = %30
  %131 = load i8, ptr %16, align 1
  %132 = zext i8 %131 to i32
  %133 = call ptr @val_to_str_const(i32 noundef %132, ptr noundef @pcep_error_value_26_vals, ptr noundef @.str.1141)
  store ptr %133, ptr %18, align 8
  br label %158

134:                                              ; preds = %30
  %135 = load i8, ptr %16, align 1
  %136 = zext i8 %135 to i32
  %137 = call ptr @val_to_str_const(i32 noundef %136, ptr noundef @pcep_error_value_27_vals, ptr noundef @.str.1141)
  store ptr %137, ptr %18, align 8
  br label %158

138:                                              ; preds = %30
  %139 = load i8, ptr %16, align 1
  %140 = zext i8 %139 to i32
  %141 = call ptr @val_to_str_const(i32 noundef %140, ptr noundef @pcep_error_value_28_vals, ptr noundef @.str.1141)
  store ptr %141, ptr %18, align 8
  br label %158

142:                                              ; preds = %30
  %143 = load i8, ptr %16, align 1
  %144 = zext i8 %143 to i32
  %145 = call ptr @val_to_str_const(i32 noundef %144, ptr noundef @pcep_error_value_29_vals, ptr noundef @.str.1141)
  store ptr %145, ptr %18, align 8
  br label %158

146:                                              ; preds = %30
  %147 = load i8, ptr %16, align 1
  %148 = zext i8 %147 to i32
  %149 = call ptr @val_to_str_const(i32 noundef %148, ptr noundef @pcep_error_value_30_vals, ptr noundef @.str.1141)
  store ptr %149, ptr %18, align 8
  br label %158

150:                                              ; preds = %30
  %151 = load i8, ptr %16, align 1
  %152 = zext i8 %151 to i32
  %153 = call ptr @val_to_str_const(i32 noundef %152, ptr noundef @pcep_error_value_31_vals, ptr noundef @.str.1141)
  store ptr %153, ptr %18, align 8
  br label %158

154:                                              ; preds = %30
  %155 = load ptr, ptr %17, align 8
  %156 = load i8, ptr %15, align 1
  %157 = zext i8 %156 to i32
  call void (ptr, ptr, ...) @proto_item_append_text(ptr noundef %155, ptr noundef @.str.1184, i32 noundef %157)
  br label %158

158:                                              ; preds = %154, %150, %146, %142, %138, %134, %130, %126, %122, %118, %114, %110, %106, %102, %98, %94, %90, %86, %82, %30, %30, %30, %30, %30, %78, %74, %70, %66, %62, %58
  %159 = load ptr, ptr %8, align 8
  %160 = load i32, ptr @hf_PCEPF_ERROR_VALUE, align 4
  %161 = load ptr, ptr %10, align 8
  %162 = load i32, ptr %11, align 4
  %163 = add i32 %162, 3
  %164 = load i8, ptr %16, align 1
  %165 = zext i8 %164 to i32
  %166 = load ptr, ptr %18, align 8
  %167 = load i8, ptr %16, align 1
  %168 = zext i8 %167 to i32
  %169 = call ptr (ptr, i32, ptr, i32, i32, i32, ptr, ...) @proto_tree_add_uint_format_value(ptr noundef %159, i32 noundef %160, ptr noundef %161, i32 noundef %163, i32 noundef 1, i32 noundef %165, ptr noundef @.str.1185, ptr noundef %166, i32 noundef %168)
  %170 = load i32, ptr %11, align 4
  %171 = add i32 %170, 4
  store i32 %171, ptr %11, align 4
  %172 = load i32, ptr %12, align 4
  %173 = sub i32 %172, 8
  store i32 %173, ptr %12, align 4
  %174 = load ptr, ptr %8, align 8
  %175 = load ptr, ptr %10, align 8
  %176 = load i32, ptr %11, align 4
  %177 = load i32, ptr %12, align 4
  %178 = load i32, ptr @ett_pcep_obj_error, align 4
  call void @dissect_pcep_tlvs(ptr noundef %174, ptr noundef %175, i32 noundef %176, i32 noundef %177, i32 noundef %178)
  store i32 0, ptr %19, align 4
  br label %179

179:                                              ; preds = %158, %22
  call void @llvm.lifetime.end.p0(i64 8, ptr %18) #4
  call void @llvm.lifetime.end.p0(i64 8, ptr %17) #4
  call void @llvm.lifetime.end.p0(i64 1, ptr %16) #4
  call void @llvm.lifetime.end.p0(i64 1, ptr %15) #4
  %180 = load i32, ptr %19, align 4
  switch i32 %180, label %182 [
    i32 0, label %181
    i32 1, label %181
  ]

181:                                              ; preds = %179, %179
  ret void

182:                                              ; preds = %179
  unreachable
}