; Function Attrs: null_pointer_is_valid sspstrong uwtable
define internal void @dissect_pcep_error_obj(ptr noundef %0, ptr noundef %1, ptr noundef %2, i32 noundef %3, i32 noundef %4, i32 %5, i32 %6) #0 {
  %8 = icmp slt i32 %4, 8
  br i1 %8, label %9, label %11

9:                                                ; preds = %7
  %10 = tail call ptr (ptr, ptr, ptr, ptr, i32, i32, ptr, ...) @proto_tree_add_expert_format(ptr noundef %0, ptr noundef %1, ptr noundef nonnull @ei_pcep_subobject_bad_length, ptr noundef %2, i32 noundef %3, i32 noundef %4, ptr noundef nonnull @.str.1183, i32 noundef %4, i32 noundef 8)
  br label %104

11:                                               ; preds = %7
  %12 = load i32, ptr @hf_pcep_error_obj_reserved, align 4
  %13 = tail call ptr @proto_tree_add_item(ptr noundef %0, i32 noundef %12, ptr noundef %2, i32 noundef %3, i32 noundef 1, i32 noundef 0)
  %14 = load i32, ptr @hf_pcep_error_obj_flags, align 4
  %15 = add i32 %3, 1
  %16 = tail call ptr @proto_tree_add_item(ptr noundef %0, i32 noundef %14, ptr noundef %2, i32 noundef %15, i32 noundef 1, i32 noundef 0)
  %17 = add i32 %3, 2
  %18 = tail call zeroext i8 @tvb_get_uint8(ptr noundef %2, i32 noundef %17)
  %19 = add i32 %3, 3
  %20 = tail call zeroext i8 @tvb_get_uint8(ptr noundef %2, i32 noundef %19)
  %21 = load i32, ptr @hf_PCEPF_ERROR_TYPE, align 4
  %22 = tail call ptr @proto_tree_add_item(ptr noundef %0, i32 noundef %21, ptr noundef %2, i32 noundef %17, i32 noundef 1, i32 noundef 0)
  switch i8 %18, label %95 [
    i8 1, label %23
    i8 2, label %97
    i8 3, label %26
    i8 4, label %29
    i8 5, label %32
    i8 6, label %35
    i8 7, label %97
    i8 8, label %97
    i8 9, label %97
    i8 10, label %38
    i8 11, label %97
    i8 12, label %41
    i8 13, label %44
    i8 15, label %47
    i8 16, label %50
    i8 17, label %53
    i8 18, label %56
    i8 19, label %59
    i8 20, label %62
    i8 21, label %65
    i8 23, label %68
    i8 24, label %71
    i8 25, label %74
    i8 26, label %77
    i8 27, label %80
    i8 28, label %83
    i8 29, label %86
    i8 30, label %89
    i8 31, label %92
  ]

23:                                               ; preds = %11
  %24 = zext i8 %20 to i32
  %25 = tail call ptr @val_to_str_const(i32 noundef %24, ptr noundef nonnull @pcep_error_value_1_vals, ptr noundef nonnull @.str.1141)
  br label %97

26:                                               ; preds = %11
  %27 = zext i8 %20 to i32
  %28 = tail call ptr @val_to_str_const(i32 noundef %27, ptr noundef nonnull @pcep_error_value_3_vals, ptr noundef nonnull @.str.1141)
  br label %97

29:                                               ; preds = %11
  %30 = zext i8 %20 to i32
  %31 = tail call ptr @val_to_str_const(i32 noundef %30, ptr noundef nonnull @pcep_error_value_4_vals, ptr noundef nonnull @.str.1141)
  br label %97

32:                                               ; preds = %11
  %33 = zext i8 %20 to i32
  %34 = tail call ptr @val_to_str_const(i32 noundef %33, ptr noundef nonnull @pcep_error_value_5_vals, ptr noundef nonnull @.str.1141)
  br label %97

35:                                               ; preds = %11
  %36 = zext i8 %20 to i32
  %37 = tail call ptr @val_to_str_const(i32 noundef %36, ptr noundef nonnull @pcep_error_value_6_vals, ptr noundef nonnull @.str.1141)
  br label %97

38:                                               ; preds = %11
  %39 = zext i8 %20 to i32
  %40 = tail call ptr @val_to_str_const(i32 noundef %39, ptr noundef nonnull @pcep_error_value_10_vals, ptr noundef nonnull @.str.1141)
  br label %97

41:                                               ; preds = %11
  %42 = zext i8 %20 to i32
  %43 = tail call ptr @val_to_str_const(i32 noundef %42, ptr noundef nonnull @pcep_error_value_12_vals, ptr noundef nonnull @.str.1141)
  br label %97

44:                                               ; preds = %11
  %45 = zext i8 %20 to i32
  %46 = tail call ptr @val_to_str_const(i32 noundef %45, ptr noundef nonnull @pcep_error_value_13_vals, ptr noundef nonnull @.str.1141)
  br label %97

47:                                               ; preds = %11
  %48 = zext i8 %20 to i32
  %49 = tail call ptr @val_to_str_const(i32 noundef %48, ptr noundef nonnull @pcep_error_value_15_vals, ptr noundef nonnull @.str.1141)
  br label %97

50:                                               ; preds = %11
  %51 = zext i8 %20 to i32
  %52 = tail call ptr @val_to_str_const(i32 noundef %51, ptr noundef nonnull @pcep_error_value_16_vals, ptr noundef nonnull @.str.1141)
  br label %97

53:                                               ; preds = %11
  %54 = zext i8 %20 to i32
  %55 = tail call ptr @val_to_str_const(i32 noundef %54, ptr noundef nonnull @pcep_error_value_17_vals, ptr noundef nonnull @.str.1141)
  br label %97

56:                                               ; preds = %11
  %57 = zext i8 %20 to i32
  %58 = tail call ptr @val_to_str_const(i32 noundef %57, ptr noundef nonnull @pcep_error_value_18_vals, ptr noundef nonnull @.str.1141)
  br label %97

59:                                               ; preds = %11
  %60 = zext i8 %20 to i32
  %61 = tail call ptr @val_to_str_const(i32 noundef %60, ptr noundef nonnull @pcep_error_value_19_vals, ptr noundef nonnull @.str.1141)
  br label %97

62:                                               ; preds = %11
  %63 = zext i8 %20 to i32
  %64 = tail call ptr @val_to_str_const(i32 noundef %63, ptr noundef nonnull @pcep_error_value_20_vals, ptr noundef nonnull @.str.1141)
  br label %97

65:                                               ; preds = %11
  %66 = zext i8 %20 to i32
  %67 = tail call ptr @val_to_str_const(i32 noundef %66, ptr noundef nonnull @pcep_error_value_21_vals, ptr noundef nonnull @.str.1141)
  br label %97

68:                                               ; preds = %11
  %69 = zext i8 %20 to i32
  %70 = tail call ptr @val_to_str_const(i32 noundef %69, ptr noundef nonnull @pcep_error_value_23_vals, ptr noundef nonnull @.str.1141)
  br label %97

71:                                               ; preds = %11
  %72 = zext i8 %20 to i32
  %73 = tail call ptr @val_to_str_const(i32 noundef %72, ptr noundef nonnull @pcep_error_value_24_vals, ptr noundef nonnull @.str.1141)
  br label %97

74:                                               ; preds = %11
  %75 = zext i8 %20 to i32
  %76 = tail call ptr @val_to_str_const(i32 noundef %75, ptr noundef nonnull @pcep_error_value_25_vals, ptr noundef nonnull @.str.1141)
  br label %97

77:                                               ; preds = %11
  %78 = zext i8 %20 to i32
  %79 = tail call ptr @val_to_str_const(i32 noundef %78, ptr noundef nonnull @pcep_error_value_26_vals, ptr noundef nonnull @.str.1141)
  br label %97

80:                                               ; preds = %11
  %81 = zext i8 %20 to i32
  %82 = tail call ptr @val_to_str_const(i32 noundef %81, ptr noundef nonnull @pcep_error_value_27_vals, ptr noundef nonnull @.str.1141)
  br label %97

83:                                               ; preds = %11
  %84 = zext i8 %20 to i32
  %85 = tail call ptr @val_to_str_const(i32 noundef %84, ptr noundef nonnull @pcep_error_value_28_vals, ptr noundef nonnull @.str.1141)
  br label %97

86:                                               ; preds = %11
  %87 = zext i8 %20 to i32
  %88 = tail call ptr @val_to_str_const(i32 noundef %87, ptr noundef nonnull @pcep_error_value_29_vals, ptr noundef nonnull @.str.1141)
  br label %97

89:                                               ; preds = %11
  %90 = zext i8 %20 to i32
  %91 = tail call ptr @val_to_str_const(i32 noundef %90, ptr noundef nonnull @pcep_error_value_30_vals, ptr noundef nonnull @.str.1141)
  br label %97

92:                                               ; preds = %11
  %93 = zext i8 %20 to i32
  %94 = tail call ptr @val_to_str_const(i32 noundef %93, ptr noundef nonnull @pcep_error_value_31_vals, ptr noundef nonnull @.str.1141)
  br label %97

95:                                               ; preds = %11
  %96 = zext i8 %18 to i32
  tail call void (ptr, ptr, ...) @proto_item_append_text(ptr noundef %22, ptr noundef nonnull @.str.1184, i32 noundef %96)
  br label %97

97:                                               ; preds = %95, %92, %89, %86, %83, %80, %77, %74, %71, %68, %65, %62, %59, %56, %53, %50, %47, %44, %41, %38, %35, %32, %29, %26, %23, %11, %11, %11, %11, %11
  %.0 = phi ptr [ @.str.872, %95 ], [ %94, %92 ], [ %91, %89 ], [ %88, %86 ], [ %85, %83 ], [ %82, %80 ], [ %79, %77 ], [ %76, %74 ], [ %73, %71 ], [ %70, %68 ], [ %67, %65 ], [ %64, %62 ], [ %61, %59 ], [ %58, %56 ], [ %55, %53 ], [ %52, %50 ], [ %49, %47 ], [ %46, %44 ], [ %43, %41 ], [ %40, %38 ], [ %37, %35 ], [ %34, %32 ], [ %31, %29 ], [ %28, %26 ], [ @.str.872, %11 ], [ @.str.872, %11 ], [ @.str.872, %11 ], [ @.str.872, %11 ], [ @.str.872, %11 ], [ %25, %23 ]
  %98 = load i32, ptr @hf_PCEPF_ERROR_VALUE, align 4
  %99 = zext i8 %20 to i32
  %100 = tail call ptr (ptr, i32, ptr, i32, i32, i32, ptr, ...) @proto_tree_add_uint_format_value(ptr noundef %0, i32 noundef %98, ptr noundef %2, i32 noundef %19, i32 noundef 1, i32 noundef %99, ptr noundef nonnull @.str.1185, ptr noundef %.0, i32 noundef %99)
  %101 = add i32 %3, 4
  %102 = add nsw i32 %4, -8
  %103 = load i32, ptr @ett_pcep_obj_error, align 4
  tail call fastcc void @dissect_pcep_tlvs_with_scope(ptr noundef %0, ptr noundef %2, i32 noundef %101, i32 noundef range(i32 0, 2147483640) %102, i32 noundef %103, i16 noundef zeroext 0)
  br label %104

104:                                              ; preds = %97, %9
  ret void
}